Certificate:
    Data:
        Version: 3 (0x2)
        Serial Number:
            83:42:51:55:59:33:97:66:62:95:12:17:63:17:15
        Signature Algorithm: sha256WithRSAEncryption
        Issuer: C=IN, ST=Mumbai, L=Maharastra, O=Buzzworks PLD., OU=flexydial PLD., CN=Buzzworks CA Authority/emailAddress=help@flexydial.com
        Validity
            Not Before: Oct 21 15:36:14 2021 GMT
            Not After : Oct 20 15:36:14 2026 GMT
        Subject: C=IN, ST=Mumbai, L=Mumbai, O=Flexydial, OU=Solutions, CN=flexydial.com/emailAddress=help@flexydial.com
        Subject Public Key Info:
            Public Key Algorithm: rsaEncryption
                RSA Public-Key: (4096 bit)
                Modulus:
                    00:ed:6e:d4:74:00:3d:ea:24:ee:81:17:ca:02:57:
                    ce:51:31:f3:2e:71:3a:b7:3a:51:eb:41:e5:b9:96:
                    28:41:8a:ee:8f:4c:f4:57:ac:b4:07:9e:c0:b1:bc:
                    dd:92:03:54:07:38:88:60:43:8b:6d:41:58:7b:a7:
                    bc:98:3d:92:88:b5:9e:84:17:2e:9a:39:27:eb:92:
                    77:95:f0:fc:93:ed:5a:21:e2:fb:3e:16:13:f7:15:
                    4e:8e:82:05:ee:6c:96:6d:55:30:47:4e:7a:a8:2c:
                    36:67:8f:b2:c8:5f:8f:aa:79:74:0b:6d:35:d6:d7:
                    23:b9:23:7d:b9:26:66:f0:c9:fe:6c:5b:b5:e9:81:
                    5b:df:1f:e1:4e:da:2b:f0:a5:63:db:6e:33:f5:44:
                    8a:ec:45:68:5d:17:ce:54:02:25:c6:b3:07:94:28:
                    b3:fe:d8:96:01:e0:69:ff:85:5c:30:a9:39:21:4a:
                    e0:5e:3a:67:b2:48:7b:ac:de:a8:a0:c9:c4:22:df:
                    62:b5:ae:5a:88:90:60:10:f9:a5:6c:3b:73:27:97:
                    7e:ef:c5:b3:6b:79:00:41:a6:9d:0a:96:00:87:57:
                    3c:ec:3f:17:db:d3:bd:66:22:26:3c:22:cf:00:3c:
                    8f:c8:65:0b:57:e0:76:02:d3:c4:43:64:16:ff:6e:
                    f3:98:da:36:8f:06:5b:7d:b7:87:b9:0f:1a:fe:d1:
                    b2:78:38:21:ee:41:62:99:2d:21:80:b5:30:7c:8f:
                    d9:42:89:e2:97:8d:a8:19:36:49:c3:86:7c:02:76:
                    b2:6f:e3:34:2a:2e:2d:dd:1d:a7:3b:cf:bd:b0:28:
                    f7:6b:d4:d7:fa:6c:75:5f:a7:1c:05:c8:fe:ca:a0:
                    d5:cb:77:b0:e5:34:cd:98:01:cc:0e:17:35:0d:4b:
                    de:f4:43:39:e8:4b:4b:4a:a1:9e:71:56:42:dd:cc:
                    39:c4:64:52:c9:3e:80:16:48:90:2c:2c:db:0e:dc:
                    44:42:ce:7f:db:80:5b:62:7a:4c:b1:b1:5a:35:73:
                    af:4a:6c:e8:78:d0:0c:90:92:97:4b:fd:22:e7:ed:
                    6e:05:5e:a1:7e:e4:89:71:71:aa:87:b4:0c:0c:d4:
                    ad:d6:63:40:d2:12:e6:f6:c1:b3:61:08:46:d3:31:
                    52:c0:ae:a6:dc:af:66:c1:a1:c3:6a:15:27:29:37:
                    6d:ec:b7:96:3c:96:5a:50:5a:e7:9d:71:7d:e6:14:
                    6b:e9:3c:0b:e6:d2:d2:86:c4:6e:f7:af:3e:78:7a:
                    1a:51:54:6c:c3:2d:f3:c4:5d:2b:6f:d6:91:22:1e:
                    df:c8:6f:81:07:39:83:49:35:c5:cc:33:55:15:74:
                    a5:8d:43
                Exponent: 65537 (0x10001)
        X509v3 extensions:
            X509v3 Basic Constraints: 
                CA:FALSE
            X509v3 Subject Key Identifier: 
                3C:92:90:93:1C:29:2F:22:E8:6C:CF:D8:13:FA:8A:A7:8C:15:40:C3
            X509v3 Authority Key Identifier: 
                keyid:A8:7B:46:27:AE:7F:4E:3D:7B:C7:73:CD:FC:8E:FD:CF:27:DD:4F:E9

            X509v3 Key Usage: 
                Digital Signature, Non Repudiation, Key Encipherment, Data Encipherment
            X509v3 Subject Alternative Name: 
                DNS:*.flexydial.com, DNS:*.buzzworks.com, DNS:*.local, DNS:*.localhost, DNS:*.localdomain, IP Address:127.0.0.1, IP Address:0:0:0:0:0:0:0:1
    Signature Algorithm: sha256WithRSAEncryption
         a2:68:3b:47:81:39:3f:9f:8b:07:57:ad:01:3f:db:23:a0:50:
         be:8f:29:ca:ac:8b:3f:2c:3e:8b:ba:d3:eb:a7:53:46:49:45:
         e2:63:36:44:25:b5:a7:74:ca:2f:3b:9f:b9:89:ad:0f:70:89:
         49:82:f8:e5:f2:e2:c1:26:9b:55:19:86:26:63:d3:84:ce:a9:
         86:1b:7b:07:59:ff:f8:cb:22:f0:40:75:bc:f1:a9:66:3a:c2:
         52:2d:6b:b2:59:34:8e:e5:b3:3c:79:01:26:13:56:4c:d6:a3:
         60:e4:e1:79:ae:6c:2f:80:2d:58:0d:78:1a:bc:de:47:6f:c3:
         0a:13:f1:51:70:5f:3c:a0:a3:8b:48:85:4c:bd:f6:03:8c:4d:
         83:a4:c7:19:16:b1:74:f6:d7:0d:7d:46:25:f5:c3:ca:16:fe:
         77:38:c6:d3:4d:45:71:5a:73:a2:7a:f9:41:24:b9:19:84:4c:
         ee:77:c0:81:68:41:4e:80:e0:74:41:c8:20:f8:70:e0:35:ca:
         2c:3a:8a:e2:12:d1:1c:58:a3:f6:20:34:55:97:4c:cf:f0:af:
         3e:3b:98:d2:f3:56:95:7f:b0:2d:bb:7e:dc:ab:b7:21:6f:0a:
         66:86:4c:b1:3e:9b:11:54:37:7f:cb:2a:ff:06:12:19:87:dc:
         0b:c4:40:ef:8e:e5:ce:b8:5a:b2:80:41:ef:ee:09:ec:da:b9:
         83:bc:0a:70:ba:33:e8:eb:6c:d5:eb:66:b6:f0:e1:34:16:d5:
         38:63:63:7b:ca:96:3c:9b:61:30:5f:c6:fb:26:99:58:a1:52:
         6c:4a:31:90:18:2b:7e:13:ba:87:0a:d8:3b:2f:62:ff:bd:cf:
         bc:e2:0a:43:3c:7e:c5:15:82:84:e5:7c:c0:b9:16:b4:ab:b1:
         ad:dd:4b:c9:0c:a7:31:21:3f:79:de:48:7b:04:cf:44:a7:27:
         3f:f1:fe:aa:4f:9c:bb:1c:33:6a:80:56:7b:65:86:21:40:9c:
         58:06:90:85:64:e7:15:41:e5:e4:2c:1a:03:44:38:1a:0f:fb:
         e2:5b:47:2d:32:a5:bb:a7:68:59:b8:6e:49:bf:a1:90:61:76:
         2a:64:d6:c2:7f:8f:ef:c2:bd:7b:17:ad:1a:bb:ec:21:91:9d:
         82:9a:6f:ef:65:98:ee:fc:e0:17:92:2c:2a:65:fd:25:fd:e9:
         24:8a:bb:00:2b:d5:c8:f9:7a:ce:6d:9b:4c:4b:5a:5e:00:0b:
         96:58:bd:c9:c1:e4:7b:bb:3c:9d:29:83:a8:e5:5f:bc:83:c0:
         b8:3b:20:8b:33:66:ea:04:95:cf:5c:9f:30:92:99:51:05:c9:
         d9:95:f4:32:a4:ee:11:61
-----BEGIN CERTIFICATE-----
MIIGjTCCBHWgAwIBAgIQAINCUVVZM5dmYpUSF2MXFTANBgkqhkiG9w0BAQsFADCB
qTELMAkGA1UEBhMCSU4xDzANBgNVBAgTBk11bWJhaTETMBEGA1UEBxMKTWFoYXJh
c3RyYTEXMBUGA1UEChMOQnV6endvcmtzIFBMRC4xFzAVBgNVBAsTDmZsZXh5ZGlh
bCBQTEQuMR8wHQYDVQQDExZCdXp6d29ya3MgQ0EgQXV0aG9yaXR5MSEwHwYJKoZI
hvcNAQkBFhJoZWxwQGZsZXh5ZGlhbC5jb20wHhcNMjExMDIxMTUzNjE0WhcNMjYx
MDIwMTUzNjE0WjCBkjELMAkGA1UEBhMCSU4xDzANBgNVBAgTBk11bWJhaTEPMA0G
A1UEBxMGTXVtYmFpMRIwEAYDVQQKEwlGbGV4eWRpYWwxEjAQBgNVBAsTCVNvbHV0
aW9uczEWMBQGA1UEAxMNZmxleHlkaWFsLmNvbTEhMB8GCSqGSIb3DQEJARYSaGVs
cEBmbGV4eWRpYWwuY29tMIICIjANBgkqhkiG9w0BAQEFAAOCAg8AMIICCgKCAgEA
7W7UdAA96iTugRfKAlfOUTHzLnE6tzpR60HluZYoQYruj0z0V6y0B57AsbzdkgNU
BziIYEOLbUFYe6e8mD2SiLWehBcumjkn65J3lfD8k+1aIeL7PhYT9xVOjoIF7myW
bVUwR056qCw2Z4+yyF+Pqnl0C2011tcjuSN9uSZm8Mn+bFu16YFb3x/hTtor8KVj
224z9USK7EVoXRfOVAIlxrMHlCiz/tiWAeBp/4VcMKk5IUrgXjpnskh7rN6ooMnE
It9ita5aiJBgEPmlbDtzJ5d+78Wza3kAQaadCpYAh1c87D8X29O9ZiImPCLPADyP
yGULV+B2AtPEQ2QW/27zmNo2jwZbfbeHuQ8a/tGyeDgh7kFimS0hgLUwfI/ZQoni
l42oGTZJw4Z8Anayb+M0Ki4t3R2nO8+9sCj3a9TX+mx1X6ccBcj+yqDVy3ew5TTN
mAHMDhc1DUve9EM56EtLSqGecVZC3cw5xGRSyT6AFkiQLCzbDtxEQs5/24BbYnpM
sbFaNXOvSmzoeNAMkJKXS/0i5+1uBV6hfuSJcXGqh7QMDNSt1mNA0hLm9sGzYQhG
0zFSwK6m3K9mwaHDahUnKTdt7LeWPJZaUFrnnXF95hRr6TwL5tLShsRu968+eHoa
UVRswy3zxF0rb9aRIh7fyG+BBzmDSTXFzDNVFXSljUMCAwEAAaOBxTCBwjAJBgNV
HRMEAjAAMB0GA1UdDgQWBBQ8kpCTHCkvIuhsz9gT+oqnjBVAwzAfBgNVHSMEGDAW
gBSoe0Ynrn9OPXvHc838jv3PJ91P6TALBgNVHQ8EBAMCBPAwaAYDVR0RBGEwX4IP
Ki5mbGV4eWRpYWwuY29tgg8qLmJ1enp3b3Jrcy5jb22CByoubG9jYWyCCyoubG9j
YWxob3N0gg0qLmxvY2FsZG9tYWluhwR/AAABhxAAAAAAAAAAAAAAAAAAAAABMA0G
CSqGSIb3DQEBCwUAA4ICAQCiaDtHgTk/n4sHV60BP9sjoFC+jynKrIs/LD6LutPr
p1NGSUXiYzZEJbWndMovO5+5ia0PcIlJgvjl8uLBJptVGYYmY9OEzqmGG3sHWf/4
yyLwQHW88almOsJSLWuyWTSO5bM8eQEmE1ZM1qNg5OF5rmwvgC1YDXgavN5Hb8MK
E/FRcF88oKOLSIVMvfYDjE2DpMcZFrF09tcNfUYl9cPKFv53OMbTTUVxWnOievlB
JLkZhEzud8CBaEFOgOB0Qcgg+HDgNcosOoriEtEcWKP2IDRVl0zP8K8+O5jS81aV
f7Atu37cq7chbwpmhkyxPpsRVDd/yyr/BhIZh9wLxEDvjuXOuFqygEHv7gns2rmD
vApwujPo62zV62a28OE0FtU4Y2N7ypY8m2EwX8b7JplYoVJsSjGQGCt+E7qHCtg7
L2L/vc+84gpDPH7FFYKE5XzAuRa0q7Gt3UvJDKcxIT953kh7BM9Epyc/8f6qT5y7
HDNqgFZ7ZYYhQJxYBpCFZOcVQeXkLBoDRDgaD/viW0ctMqW7p2hZuG5Jv6GQYXYq
ZNbCf4/vwr17F60au+whkZ2Cmm/vZZju/OAXkiwqZf0l/ekkirsAK9XI+XrObZtM
S1peAAuWWL3JweR7uzydKYOo5V+8g8C4OyCLM2bqBJXPXJ8wkplRBcnZlfQypO4R
YQ==
-----END CERTIFICATE-----
